target datalayout = "e-m:e-p270:32:32-p271:32:32-p272:64:64-i64:64-i128:128-f80:128-n8:16:32:64-S128"
target triple = "x86_64-pc-linux-gnu"

%struct.H5FL_reg_head_t = type { i8, i32, i32, ptr, i64, ptr }

@H5_H5D_copy_file_ud_t_reg_free_list = global %struct.H5FL_reg_head_t { i8 0, i32 0, i32 0, ptr @.str.1, i64 24, ptr null }, align 8
@.str.2 = private unnamed_addr constant [99 x i8] c"generated/home/dtcxzyw/WorkSpace/Projects/compilers/llvm-opt-benchmark/bench/hdf5/hdf5/src/H5Doh.c\00", align 1
@__func__.H5O__dset_get_copy_file_udata = private unnamed_addr constant [30 x i8] c"H5O__dset_get_copy_file_udata\00", align 1
@H5E_RESOURCE_g = external global i64, align 8
@H5E_NOSPACE_g = external global i64, align 8
@.str.3 = private unnamed_addr constant [25 x i8] c"memory allocation failed\00", align 1

; Function Attrs: nounwind uwtable
define internal ptr @H5O__dset_get_copy_file_udata() #0 {
  %1 = alloca ptr, align 8
  %2 = alloca i8, align 1
  store ptr null, ptr %1, align 8
  store i8 0, ptr %2, align 1
  %3 = call noalias ptr @H5FL_reg_calloc(ptr noundef @H5_H5D_copy_file_ud_t_reg_free_list)
  store ptr %3, ptr %1, align 8
  %4 = icmp eq ptr null, %3
  br i1 %4, label %5, label %20

5:                                                ; preds = %0
  br label %6

6:                                                ; preds = %5
  br label %7

7:                                                ; preds = %6
  br label %8

8:                                                ; preds = %7
  %9 = load i64, ptr @H5E_RESOURCE_g, align 8
  %10 = load i64, ptr @H5E_NOSPACE_g, align 8
  %11 = call i32 (ptr, ptr, i32, i64, i64, ptr, ...) @H5E_printf_stack(ptr noundef @.str.2, ptr noundef @__func__.H5O__dset_get_copy_file_udata, i32 noundef 102, i64 noundef %9, i64 noundef %10, ptr noundef @.str.3)
  br label %12

12:                                               ; preds = %8
  store i8 1, ptr %2, align 1
  %13 = load i8, ptr %2, align 1
  %14 = trunc i8 %13 to i1
  %15 = zext i1 %14 to i8
  store i8 %15, ptr %2, align 1
  br label %16

16:                                               ; preds = %12
  br label %17

17:                                               ; preds = %16
  store ptr null, ptr %1, align 8
  br label %21

18:                                               ; No predecessors!
  br label %19

19:                                               ; preds = %18
  br label %20

20:                                               ; preds = %19, %0
  br label %21

21:                                               ; preds = %20, %17
  %22 = load ptr, ptr %1, align 8
  ret ptr %22
}