; Function Attrs: nounwind uwtable
define internal noalias ptr @H5O__dset_get_copy_file_udata() #0 {
  %1 = tail call noalias ptr @H5FL_reg_calloc(ptr noundef nonnull @H5_H5D_copy_file_ud_t_reg_free_list) #3
  %2 = icmp eq ptr %1, null
  br i1 %2, label %3, label %7

3:                                                ; preds = %0
  %4 = load i64, ptr @H5E_RESOURCE_g, align 8
  %5 = load i64, ptr @H5E_NOSPACE_g, align 8
  %6 = tail call i32 (ptr, ptr, i32, i64, i64, ptr, ...) @H5E_printf_stack(ptr noundef nonnull @.str.2, ptr noundef nonnull @__func__.H5O__dset_get_copy_file_udata, i32 noundef 102, i64 noundef %4, i64 noundef %5, ptr noundef nonnull @.str.3) #3
  br label %7

7:                                                ; preds = %0, %3
  ret ptr %1
}